ccopy_reg
_reconstructor
p0
(cBoard
Board
p1
c__builtin__
object
p2
Ntp3
Rp4
(dp5
S'postits'
p6
(lp7
g0
(cPostit
Postit
p8
g2
Ntp9
Rp10
(dp11
S'path'
p12
Vimages/horse/postit_0.jpg
p13
sS'sizeX'
p14
I248
sS'sizeY'
p15
I105
sS'posX'
p16
I285
sS'posY'
p17
I302
sbasg14
I800
sg15
I600
sS'background'
p18
S'#ffffff'
p19
sS'title'
p20
Vhorse
p21
sb.