ccopy_reg
_reconstructor
p0
(cBoard
Board
p1
c__builtin__
object
p2
Ntp3
Rp4
(dp5
S'title'
p6
S'image'
p7
sS'sizeX'
p8
I800
sS'sizeY'
p9
I600
sS'postits'
p10
(lp11
g0
(cPostit
Postit
p12
g2
Ntp13
Rp14
(dp15
S'path'
p16
S'images/image/postit_3.jpg'
p17
sg8
I180
sg9
I182
sS'posX'
p18
I320
sS'posY'
p19
I405
sbag0
(g12
g2
Ntp20
Rp21
(dp22
g16
S'images/image/postit_1.jpg'
p23
sg8
I166
sg9
I167
sg18
I47
sg19
I54
sbag0
(g12
g2
Ntp24
Rp25
(dp26
g16
S'images/image/postit_2.jpg'
p27
sg8
I166
sg9
I162
sg18
I387
sg19
I32
sbag0
(g12
g2
Ntp28
Rp29
(dp30
g16
S'images/image/postit_7.jpg'
p31
sg8
I153
sg9
I156
sg18
I451
sg19
I68
sbag0
(g12
g2
Ntp32
Rp33
(dp34
g16
S'images/image/postit_0.jpg'
p35
sg8
I156
sg9
I145
sg18
I492
sg19
I390
sbag0
(g12
g2
Ntp36
Rp37
(dp38
g16
S'images/image/postit_5.jpg'
p39
sg8
I169
sg9
I166
sg18
I91
sg19
I249
sbag0
(g12
g2
Ntp40
Rp41
(dp42
g16
S'images/image/postit_4.jpg'
p43
sg8
I141
sg9
I142
sg18
I643
sg19
I353
sbasS'background'
p44
S'#ffffff'
p45
sg16
S'../image.jpg'
p46
sb.