ccopy_reg
_reconstructor
p0
(cBoard
Board
p1
c__builtin__
object
p2
Ntp3
Rp4
(dp5
S'title'
p6
Vimages
p7
sS'sizeX'
p8
I800
sS'sizeY'
p9
I600
sS'postits'
p10
(lp11
g0
(cPostit
Postit
p12
g2
Ntp13
Rp14
(dp15
S'path'
p16
Vimages/images/postit_2.jpg
p17
sg8
I215
sg9
I151
sS'posX'
p18
I52
sS'posY'
p19
I218
sbag0
(g12
g2
Ntp20
Rp21
(dp22
g16
Vimages/images/postit_6.jpg
p23
sg8
I215
sg9
I164
sg18
I250
sg19
I46
sbag0
(g12
g2
Ntp24
Rp25
(dp26
g16
Vimages/images/postit_3.jpg
p27
sg8
I210
sg9
I157
sg18
I549
sg19
I143
sbag0
(g12
g2
Ntp28
Rp29
(dp30
g16
Vimages/images/postit_5.jpg
p31
sg8
I217
sg9
I164
sg18
I347
sg19
I190
sbag0
(g12
g2
Ntp32
Rp33
(dp34
g16
Vimages/images/postit_1.jpg
p35
sg8
I216
sg9
I163
sg18
I557
sg19
I339
sbag0
(g12
g2
Ntp36
Rp37
(dp38
g16
Vimages/images/postit_0.jpg
p39
sg8
I216
sg9
I149
sg18
I134
sg19
I340
sbag0
(g12
g2
Ntp40
Rp41
(dp42
g16
Vimages/images/postit_7.jpg
p43
sg8
I236
sg9
I189
sg18
I161
sg19
I330
sbag0
(g12
g2
Ntp44
Rp45
(dp46
g16
Vimages/images/postit_8.jpg
p47
sg8
I225
sg9
I165
sg18
I84
sg19
I0
sbag0
(g12
g2
Ntp48
Rp49
(dp50
g16
Vimages/images/postit_4.jpg
p51
sg8
I209
sg9
I153
sg18
I454
sg19
I45
sbasS'background'
p52
S'#ffffff'
p53
sg16
V/home/cephei/Desktop/images.jpg
p54
sb.