ccopy_reg
_reconstructor
p0
(cBoard
Board
p1
c__builtin__
object
p2
Ntp3
Rp4
(dp5
S'title'
p6
S'image'
p7
sS'sizeX'
p8
I800
sS'sizeY'
p9
I600
sS'postits'
p10
(lp11
g0
(cPostit
Postit
p12
g2
Ntp13
Rp14
(dp15
S'path'
p16
S'images/image/postit_0.png'
p17
sg8
I156
sg9
I145
sS'posX'
p18
I566
sS'posY'
p19
I279
sbag0
(g12
g2
Ntp20
Rp21
(dp22
g16
S'images/image/postit_2.png'
p23
sg8
I166
sg9
I162
sg18
I101
sg19
I324
sbag0
(g12
g2
Ntp24
Rp25
(dp26
g16
S'images/image/postit_3.png'
p27
sg8
I180
sg9
I182
sg18
I320
sg19
I405
sbag0
(g12
g2
Ntp28
Rp29
(dp30
g16
S'images/image/postit_4.png'
p31
sg8
I141
sg9
I142
sg18
I404
sg19
I224
sbag0
(g12
g2
Ntp32
Rp33
(dp34
g16
S'images/image/postit_6.png'
p35
sg8
I44
sg9
I323
sg18
I755
sg19
I124
sbag0
(g12
g2
Ntp36
Rp37
(dp38
g16
S'images/image/postit_1.png'
p39
sg8
I166
sg9
I167
sg18
I4
sg19
I60
sbag0
(g12
g2
Ntp40
Rp41
(dp42
g16
S'images/image/postit_5.png'
p43
sg8
I169
sg9
I166
sg18
I291
sg19
I179
sbag0
(g12
g2
Ntp44
Rp45
(dp46
g16
S'images/image/postit_7.png'
p47
sg8
I153
sg9
I156
sg18
I418
sg19
I129
sbasS'background'
p48
S'#ffffff'
p49
sg16
S'../image.jpg'
p50
sb.