ccopy_reg
_reconstructor
p0
(cBoard
Board
p1
c__builtin__
object
p2
Ntp3
Rp4
(dp5
S'postits'
p6
(lp7
g0
(cPostit
Postit
p8
g2
Ntp9
Rp10
(dp11
S'path'
p12
S'images/image4/postit_0.jpg'
p13
sS'sizeX'
p14
I161
sS'sizeY'
p15
I102
sS'posX'
p16
I103
sS'posY'
p17
I425
sbag0
(g8
g2
Ntp18
Rp19
(dp20
g12
S'images/image4/postit_1.jpg'
p21
sg14
I150
sg15
I130
sg16
I421
sg17
I22
sbag0
(g8
g2
Ntp22
Rp23
(dp24
g12
S'images/image4/postit_2.jpg'
p25
sg14
I155
sg15
I145
sg16
I420
sg17
I267
sbag0
(g8
g2
Ntp26
Rp27
(dp28
g12
S'images/image4/postit_3.jpg'
p29
sg14
I129
sg15
I118
sg16
I634
sg17
I391
sbag0
(g8
g2
Ntp30
Rp31
(dp32
g12
S'images/image4/postit_4.jpg'
p33
sg14
I129
sg15
I106
sg16
I51
sg17
I119
sbag0
(g8
g2
Ntp34
Rp35
(dp36
g12
S'images/image4/postit_5.jpg'
p37
sg14
I122
sg15
I117
sg16
I265
sg17
I281
sbag0
(g8
g2
Ntp38
Rp39
(dp40
g12
S'images/image4/postit_6.jpg'
p41
sg14
I169
sg15
I142
sg16
I523
sg17
I152
sbasg14
I800
sg15
I600
sS'background'
p42
S'#ffffff'
p43
sS'title'
p44
S'image4'
p45
sb.